; Function Attrs: nounwind uwtable
define internal range(i32 0, 2) i32 @fake_rsa_dgstsgn(ptr noundef %0, ptr noundef writeonly captures(address_is_null) %1, ptr noundef captures(address_is_null) %2, i64 noundef %3, ptr readnone captures(none) %4, i64 %5) #1 {
  %7 = tail call i32 @test_ptr(ptr noundef nonnull @.str.9, i32 noundef 425, ptr noundef nonnull @.str.19, ptr noundef %0) #12
  %.not.i = icmp eq i32 %7, 0
  br i1 %.not.i, label %fake_rsa_dgstsgnvfy_final.exit, label %8

8:                                                ; preds = %6
  %9 = load i8, ptr %0, align 1, !tbaa !14
  %10 = icmp ne i8 %9, 0
  %11 = and i8 %9, 8
  %.not6.i = icmp eq i8 %11, 0
  %or.cond.i = and i1 %10, %.not6.i
  br i1 %or.cond.i, label %12, label %fake_rsa_dgstsgnvfy_final.exit

12:                                               ; preds = %8
  %13 = or i8 %9, 4
  store i8 %13, ptr %0, align 1, !tbaa !14
  %14 = tail call i32 @test_ptr(ptr noundef nonnull @.str.9, i32 noundef 441, ptr noundef nonnull @.str.19, ptr noundef nonnull %0) #12
  %.not.i7 = icmp eq i32 %14, 0
  br i1 %.not.i7, label %fake_rsa_dgstsgnvfy_final.exit, label %15

15:                                               ; preds = %12
  %16 = load i8, ptr %0, align 1, !tbaa !14
  %17 = zext i8 %16 to i32
  %18 = icmp ne i8 %16, 0
  %19 = and i32 %17, 8
  %.not23.i = icmp eq i32 %19, 0
  %or.cond27.i = and i1 %18, %.not23.i
  br i1 %or.cond27.i, label %20, label %fake_rsa_dgstsgnvfy_final.exit

20:                                               ; preds = %15
  %21 = and i32 %17, 1
  %22 = icmp ne i32 %21, 0
  %23 = icmp eq ptr %2, null
  %or.cond.i9 = and i1 %23, %22
  br i1 %or.cond.i9, label %fake_rsa_dgstsgnvfy_final.exit, label %24

24:                                               ; preds = %20
  %25 = and i32 %17, 2
  %26 = icmp ne i32 %25, 0
  %27 = icmp ne ptr %2, null
  %or.cond3.i = and i1 %27, %26
  br i1 %or.cond3.i, label %fake_rsa_dgstsgnvfy_final.exit, label %28

28:                                               ; preds = %24
  br i1 %27, label %29, label %35

29:                                               ; preds = %28
  store i64 256, ptr %2, align 8, !tbaa !15
  %.not24.i = icmp eq ptr %1, null
  br i1 %.not24.i, label %35, label %30

30:                                               ; preds = %29
  %31 = trunc i64 %3 to i32
  %32 = tail call i32 @test_int_ge(ptr noundef nonnull @.str.9, i32 noundef 458, ptr noundef nonnull @.str.25, ptr noundef nonnull @.str.26, i32 noundef %31, i32 noundef 256) #12
  %.not25.i = icmp eq i32 %32, 0
  br i1 %.not25.i, label %fake_rsa_dgstsgnvfy_final.exit, label %33

33:                                               ; preds = %30
  %34 = load i64, ptr %2, align 8, !tbaa !15
  tail call void @llvm.memset.p0.i64(ptr nonnull align 1 %1, i8 97, i64 %34, i1 false)
  br label %35

35:                                               ; preds = %33, %29, %28
  %36 = load i8, ptr %0, align 1, !tbaa !14
  %37 = and i8 %36, -96
  %.not26.i = icmp eq i8 %37, 0
  br i1 %.not26.i, label %fake_rsa_dgstsgnvfy_final.exit, label %38

38:                                               ; preds = %35
  %39 = or i8 %36, 8
  store i8 %39, ptr %0, align 1, !tbaa !14
  br label %fake_rsa_dgstsgnvfy_final.exit

fake_rsa_dgstsgnvfy_final.exit:                   ; preds = %8, %6, %38, %35, %30, %24, %20, %15, %12
  %.0 = phi i32 [ 0, %12 ], [ 0, %15 ], [ 0, %20 ], [ 0, %24 ], [ 0, %30 ], [ 1, %38 ], [ 1, %35 ], [ 0, %6 ], [ 0, %8 ]
  ret i32 %.0
}